target datalayout = "e-m:e-p270:32:32-p271:32:32-p272:64:64-i64:64-i128:128-f80:128-n8:16:32:64-S128"
target triple = "x86_64-pc-linux-gnu"

; Function Attrs: nounwind uwtable
define i32 @is_object_reference(ptr noundef %0, ptr noundef %1, ptr noundef %2) #0 {
  %4 = alloca i32, align 4
  %5 = alloca ptr, align 8
  %6 = alloca ptr, align 8
  %7 = alloca ptr, align 8
  %8 = alloca ptr, align 8
  %9 = alloca ptr, align 8
  %10 = alloca ptr, align 8
  %11 = alloca i64, align 8
  %12 = alloca i32, align 4
  store ptr %0, ptr %5, align 8
  store ptr %1, ptr %6, align 8
  store ptr %2, ptr %7, align 8
  %13 = load ptr, ptr %6, align 8
  %14 = load ptr, ptr %13, align 8
  store ptr %14, ptr %8, align 8
  %15 = load ptr, ptr %5, align 8
  store ptr %15, ptr %9, align 8
  store i32 0, ptr %12, align 4
  br label %16

16:                                               ; preds = %35, %3
  %17 = load ptr, ptr %9, align 8
  %18 = load ptr, ptr %8, align 8
  %19 = icmp ult ptr %17, %18
  br i1 %19, label %20, label %33

20:                                               ; preds = %16
  %21 = call ptr @__ctype_b_loc() #8
  %22 = load ptr, ptr %21, align 8
  %23 = load ptr, ptr %9, align 8
  %24 = getelementptr inbounds i8, ptr %23, i64 0
  %25 = load i8, ptr %24, align 1
  %26 = sext i8 %25 to i32
  %27 = sext i32 %26 to i64
  %28 = getelementptr inbounds i16, ptr %22, i64 %27
  %29 = load i16, ptr %28, align 2
  %30 = zext i16 %29 to i32
  %31 = and i32 %30, 8192
  %32 = icmp ne i32 %31, 0
  br label %33

33:                                               ; preds = %20, %16
  %34 = phi i1 [ false, %16 ], [ %32, %20 ]
  br i1 %34, label %35, label %38

35:                                               ; preds = %33
  %36 = load ptr, ptr %9, align 8
  %37 = getelementptr inbounds i8, ptr %36, i32 1
  store ptr %37, ptr %9, align 8
  br label %16

38:                                               ; preds = %33
  %39 = load ptr, ptr %9, align 8
  %40 = load ptr, ptr %8, align 8
  %41 = icmp eq ptr %39, %40
  br i1 %41, label %42, label %43

42:                                               ; preds = %38
  store i32 0, ptr %4, align 4
  br label %237

43:                                               ; preds = %38
  %44 = call ptr @__ctype_b_loc() #8
  %45 = load ptr, ptr %44, align 8
  %46 = load ptr, ptr %9, align 8
  %47 = getelementptr inbounds i8, ptr %46, i64 0
  %48 = load i8, ptr %47, align 1
  %49 = sext i8 %48 to i32
  %50 = sext i32 %49 to i64
  %51 = getelementptr inbounds i16, ptr %45, i64 %50
  %52 = load i16, ptr %51, align 2
  %53 = zext i16 %52 to i32
  %54 = and i32 %53, 2048
  %55 = icmp ne i32 %54, 0
  br i1 %55, label %57, label %56

56:                                               ; preds = %43
  store i32 0, ptr %4, align 4
  br label %237

57:                                               ; preds = %43
  %58 = load ptr, ptr %9, align 8
  %59 = getelementptr inbounds i8, ptr %58, i64 1
  store ptr %59, ptr %10, align 8
  br label %60

60:                                               ; preds = %80, %57
  %61 = load ptr, ptr %10, align 8
  %62 = load ptr, ptr %8, align 8
  %63 = icmp ult ptr %61, %62
  br i1 %63, label %64, label %78

64:                                               ; preds = %60
  %65 = call ptr @__ctype_b_loc() #8
  %66 = load ptr, ptr %65, align 8
  %67 = load ptr, ptr %10, align 8
  %68 = getelementptr inbounds i8, ptr %67, i64 0
  %69 = load i8, ptr %68, align 1
  %70 = sext i8 %69 to i32
  %71 = sext i32 %70 to i64
  %72 = getelementptr inbounds i16, ptr %66, i64 %71
  %73 = load i16, ptr %72, align 2
  %74 = zext i16 %73 to i32
  %75 = and i32 %74, 8192
  %76 = icmp ne i32 %75, 0
  %77 = xor i1 %76, true
  br label %78

78:                                               ; preds = %64, %60
  %79 = phi i1 [ false, %60 ], [ %77, %64 ]
  br i1 %79, label %80, label %83

80:                                               ; preds = %78
  %81 = load ptr, ptr %10, align 8
  %82 = getelementptr inbounds i8, ptr %81, i32 1
  store ptr %82, ptr %10, align 8
  br label %60

83:                                               ; preds = %78
  %84 = load ptr, ptr %10, align 8
  %85 = load ptr, ptr %8, align 8
  %86 = icmp eq ptr %84, %85
  br i1 %86, label %87, label %88

87:                                               ; preds = %83
  store i32 0, ptr %4, align 4
  br label %237

88:                                               ; preds = %83
  %89 = load ptr, ptr %9, align 8
  %90 = call i64 @strtoul(ptr noundef %89, ptr noundef %10, i32 noundef 10) #7
  store i64 %90, ptr %11, align 8
  %91 = load i64, ptr %11, align 8
  %92 = icmp eq i64 %91, -1
  br i1 %92, label %93, label %98

93:                                               ; preds = %88
  %94 = call ptr @__errno_location() #8
  %95 = load i32, ptr %94, align 4
  %96 = icmp ne i32 %95, 0
  br i1 %96, label %97, label %98

97:                                               ; preds = %93
  store i32 0, ptr %4, align 4
  br label %237

98:                                               ; preds = %93, %88
  %99 = load i64, ptr %11, align 8
  %100 = shl i64 %99, 8
  %101 = trunc i64 %100 to i32
  store i32 %101, ptr %12, align 4
  %102 = load ptr, ptr %10, align 8
  store ptr %102, ptr %9, align 8
  br label %103

103:                                              ; preds = %122, %98
  %104 = load ptr, ptr %9, align 8
  %105 = load ptr, ptr %8, align 8
  %106 = icmp ult ptr %104, %105
  br i1 %106, label %107, label %120

107:                                              ; preds = %103
  %108 = call ptr @__ctype_b_loc() #8
  %109 = load ptr, ptr %108, align 8
  %110 = load ptr, ptr %9, align 8
  %111 = getelementptr inbounds i8, ptr %110, i64 0
  %112 = load i8, ptr %111, align 1
  %113 = sext i8 %112 to i32
  %114 = sext i32 %113 to i64
  %115 = getelementptr inbounds i16, ptr %109, i64 %114
  %116 = load i16, ptr %115, align 2
  %117 = zext i16 %116 to i32
  %118 = and i32 %117, 8192
  %119 = icmp ne i32 %118, 0
  br label %120

120:                                              ; preds = %107, %103
  %121 = phi i1 [ false, %103 ], [ %119, %107 ]
  br i1 %121, label %122, label %125

122:                                              ; preds = %120
  %123 = load ptr, ptr %9, align 8
  %124 = getelementptr inbounds i8, ptr %123, i32 1
  store ptr %124, ptr %9, align 8
  br label %103

125:                                              ; preds = %120
  %126 = load ptr, ptr %9, align 8
  %127 = load ptr, ptr %8, align 8
  %128 = icmp eq ptr %126, %127
  br i1 %128, label %129, label %130

129:                                              ; preds = %125
  store i32 0, ptr %4, align 4
  br label %237

130:                                              ; preds = %125
  %131 = call ptr @__ctype_b_loc() #8
  %132 = load ptr, ptr %131, align 8
  %133 = load ptr, ptr %9, align 8
  %134 = getelementptr inbounds i8, ptr %133, i64 0
  %135 = load i8, ptr %134, align 1
  %136 = sext i8 %135 to i32
  %137 = sext i32 %136 to i64
  %138 = getelementptr inbounds i16, ptr %132, i64 %137
  %139 = load i16, ptr %138, align 2
  %140 = zext i16 %139 to i32
  %141 = and i32 %140, 2048
  %142 = icmp ne i32 %141, 0
  br i1 %142, label %144, label %143

143:                                              ; preds = %130
  store i32 0, ptr %4, align 4
  br label %237

144:                                              ; preds = %130
  %145 = load ptr, ptr %9, align 8
  %146 = getelementptr inbounds i8, ptr %145, i64 1
  store ptr %146, ptr %10, align 8
  br label %147

147:                                              ; preds = %167, %144
  %148 = load ptr, ptr %10, align 8
  %149 = load ptr, ptr %8, align 8
  %150 = icmp ult ptr %148, %149
  br i1 %150, label %151, label %165

151:                                              ; preds = %147
  %152 = call ptr @__ctype_b_loc() #8
  %153 = load ptr, ptr %152, align 8
  %154 = load ptr, ptr %10, align 8
  %155 = getelementptr inbounds i8, ptr %154, i64 0
  %156 = load i8, ptr %155, align 1
  %157 = sext i8 %156 to i32
  %158 = sext i32 %157 to i64
  %159 = getelementptr inbounds i16, ptr %153, i64 %158
  %160 = load i16, ptr %159, align 2
  %161 = zext i16 %160 to i32
  %162 = and i32 %161, 8192
  %163 = icmp ne i32 %162, 0
  %164 = xor i1 %163, true
  br label %165

165:                                              ; preds = %151, %147
  %166 = phi i1 [ false, %147 ], [ %164, %151 ]
  br i1 %166, label %167, label %170

167:                                              ; preds = %165
  %168 = load ptr, ptr %10, align 8
  %169 = getelementptr inbounds i8, ptr %168, i32 1
  store ptr %169, ptr %10, align 8
  br label %147

170:                                              ; preds = %165
  %171 = load ptr, ptr %10, align 8
  %172 = load ptr, ptr %8, align 8
  %173 = icmp eq ptr %171, %172
  br i1 %173, label %174, label %175

174:                                              ; preds = %170
  store i32 0, ptr %4, align 4
  br label %237

175:                                              ; preds = %170
  %176 = load ptr, ptr %9, align 8
  %177 = call i64 @strtoul(ptr noundef %176, ptr noundef %10, i32 noundef 10) #7
  store i64 %177, ptr %11, align 8
  %178 = load i64, ptr %11, align 8
  %179 = icmp eq i64 %178, -1
  br i1 %179, label %180, label %185

180:                                              ; preds = %175
  %181 = call ptr @__errno_location() #8
  %182 = load i32, ptr %181, align 4
  %183 = icmp ne i32 %182, 0
  br i1 %183, label %184, label %185

184:                                              ; preds = %180
  store i32 0, ptr %4, align 4
  br label %237

185:                                              ; preds = %180, %175
  %186 = load i64, ptr %11, align 8
  %187 = and i64 %186, 255
  %188 = load i32, ptr %12, align 4
  %189 = zext i32 %188 to i64
  %190 = or i64 %189, %187
  %191 = trunc i64 %190 to i32
  store i32 %191, ptr %12, align 4
  %192 = load ptr, ptr %10, align 8
  store ptr %192, ptr %9, align 8
  br label %193

193:                                              ; preds = %212, %185
  %194 = load ptr, ptr %9, align 8
  %195 = load ptr, ptr %8, align 8
  %196 = icmp ult ptr %194, %195
  br i1 %196, label %197, label %210

197:                                              ; preds = %193
  %198 = call ptr @__ctype_b_loc() #8
  %199 = load ptr, ptr %198, align 8
  %200 = load ptr, ptr %9, align 8
  %201 = getelementptr inbounds i8, ptr %200, i64 0
  %202 = load i8, ptr %201, align 1
  %203 = sext i8 %202 to i32
  %204 = sext i32 %203 to i64
  %205 = getelementptr inbounds i16, ptr %199, i64 %204
  %206 = load i16, ptr %205, align 2
  %207 = zext i16 %206 to i32
  %208 = and i32 %207, 8192
  %209 = icmp ne i32 %208, 0
  br label %210

210:                                              ; preds = %197, %193
  %211 = phi i1 [ false, %193 ], [ %209, %197 ]
  br i1 %211, label %212, label %215

212:                                              ; preds = %210
  %213 = load ptr, ptr %9, align 8
  %214 = getelementptr inbounds i8, ptr %213, i32 1
  store ptr %214, ptr %9, align 8
  br label %193

215:                                              ; preds = %210
  %216 = load ptr, ptr %9, align 8
  %217 = load ptr, ptr %8, align 8
  %218 = icmp eq ptr %216, %217
  br i1 %218, label %219, label %220

219:                                              ; preds = %215
  store i32 0, ptr %4, align 4
  br label %237

220:                                              ; preds = %215
  %221 = load ptr, ptr %9, align 8
  %222 = getelementptr inbounds i8, ptr %221, i64 0
  %223 = load i8, ptr %222, align 1
  %224 = sext i8 %223 to i32
  %225 = icmp eq i32 %224, 82
  br i1 %225, label %226, label %236

226:                                              ; preds = %220
  %227 = load ptr, ptr %9, align 8
  %228 = getelementptr inbounds i8, ptr %227, i64 1
  %229 = load ptr, ptr %6, align 8
  store ptr %228, ptr %229, align 8
  %230 = load ptr, ptr %7, align 8
  %231 = icmp ne ptr %230, null
  br i1 %231, label %232, label %235

232:                                              ; preds = %226
  %233 = load i32, ptr %12, align 4
  %234 = load ptr, ptr %7, align 8
  store i32 %233, ptr %234, align 4
  br label %235

235:                                              ; preds = %232, %226
  store i32 1, ptr %4, align 4
  br label %237

236:                                              ; preds = %220
  store i32 0, ptr %4, align 4
  br label %237

237:                                              ; preds = %236, %235, %219, %184, %174, %143, %129, %97, %87, %56, %42
  %238 = load i32, ptr %4, align 4
  ret i32 %238
}