; Function Attrs: nofree nounwind uwtable
define noundef i32 @is_object_reference(ptr noundef %0, ptr nocapture noundef %1, ptr noundef writeonly %2) local_unnamed_addr #6 {
  %4 = alloca ptr, align 8
  %5 = load ptr, ptr %1, align 8
  %6 = ptrtoint ptr %5 to i64
  %7 = icmp ugt ptr %5, %0
  br i1 %7, label %.lr.ph, label %.critedge

.lr.ph:                                           ; preds = %3
  %8 = ptrtoint ptr %0 to i64
  %9 = tail call ptr @__ctype_b_loc() #15
  %10 = load ptr, ptr %9, align 8
  %11 = sub i64 %6, %8
  %scevgep = getelementptr i8, ptr %0, i64 %11
  br label %12

12:                                               ; preds = %.lr.ph, %18
  %.065 = phi ptr [ %0, %.lr.ph ], [ %19, %18 ]
  %13 = load i8, ptr %.065, align 1
  %14 = sext i8 %13 to i64
  %15 = getelementptr inbounds i16, ptr %10, i64 %14
  %16 = load i16, ptr %15, align 2
  %17 = and i16 %16, 8192
  %.not = icmp eq i16 %17, 0
  br i1 %.not, label %.critedge, label %18

18:                                               ; preds = %12
  %19 = getelementptr inbounds i8, ptr %.065, i64 1
  %exitcond.not = icmp eq ptr %19, %5
  br i1 %exitcond.not, label %.critedge, label %12

.critedge:                                        ; preds = %12, %18, %3
  %.0.lcssa = phi ptr [ %0, %3 ], [ %scevgep, %18 ], [ %.065, %12 ]
  %20 = icmp eq ptr %.0.lcssa, %5
  br i1 %20, label %104, label %21

21:                                               ; preds = %.critedge
  %22 = tail call ptr @__ctype_b_loc() #15
  %23 = load ptr, ptr %22, align 8
  %24 = load i8, ptr %.0.lcssa, align 1
  %25 = sext i8 %24 to i64
  %26 = getelementptr inbounds i16, ptr %23, i64 %25
  %27 = load i16, ptr %26, align 2
  %28 = and i16 %27, 2048
  %.not54 = icmp eq i16 %28, 0
  br i1 %.not54, label %104, label %.preheader64

.preheader64:                                     ; preds = %21, %30
  %.0.pn = phi ptr [ %storemerge, %30 ], [ %.0.lcssa, %21 ]
  %storemerge = getelementptr inbounds i8, ptr %.0.pn, i64 1
  store ptr %storemerge, ptr %4, align 8
  %29 = icmp ult ptr %storemerge, %5
  br i1 %29, label %30, label %.critedge2

30:                                               ; preds = %.preheader64
  %31 = load i8, ptr %storemerge, align 1
  %32 = sext i8 %31 to i64
  %33 = getelementptr inbounds i16, ptr %23, i64 %32
  %34 = load i16, ptr %33, align 2
  %35 = and i16 %34, 8192
  %.not55 = icmp eq i16 %35, 0
  br i1 %.not55, label %.preheader64, label %.critedge2

.critedge2:                                       ; preds = %.preheader64, %30
  %36 = icmp eq ptr %storemerge, %5
  br i1 %36, label %104, label %37

37:                                               ; preds = %.critedge2
  %38 = call i64 @strtoul(ptr noundef nonnull %.0.lcssa, ptr noundef nonnull %4, i32 noundef 10) #14
  %39 = icmp eq i64 %38, -1
  br i1 %39, label %40, label %43

40:                                               ; preds = %37
  %41 = tail call ptr @__errno_location() #15
  %42 = load i32, ptr %41, align 4
  %.not56 = icmp eq i32 %42, 0
  br i1 %.not56, label %43, label %104

43:                                               ; preds = %40, %37
  %44 = shl i64 %38, 8
  %45 = load ptr, ptr %4, align 8
  %46 = icmp ult ptr %45, %5
  br i1 %46, label %.lr.ph69, label %.critedge4

.lr.ph69:                                         ; preds = %43
  %47 = ptrtoint ptr %45 to i64
  %48 = load ptr, ptr %22, align 8
  %49 = sub i64 %6, %47
  %scevgep78 = getelementptr i8, ptr %45, i64 %49
  br label %50

50:                                               ; preds = %.lr.ph69, %56
  %.168 = phi ptr [ %45, %.lr.ph69 ], [ %57, %56 ]
  %51 = load i8, ptr %.168, align 1
  %52 = sext i8 %51 to i64
  %53 = getelementptr inbounds i16, ptr %48, i64 %52
  %54 = load i16, ptr %53, align 2
  %55 = and i16 %54, 8192
  %.not57 = icmp eq i16 %55, 0
  br i1 %.not57, label %.critedge4, label %56

56:                                               ; preds = %50
  %57 = getelementptr inbounds i8, ptr %.168, i64 1
  %exitcond79.not = icmp eq ptr %57, %5
  br i1 %exitcond79.not, label %.critedge4, label %50

.critedge4:                                       ; preds = %50, %56, %43
  %.1.lcssa = phi ptr [ %45, %43 ], [ %scevgep78, %56 ], [ %.168, %50 ]
  %58 = icmp eq ptr %.1.lcssa, %5
  br i1 %58, label %104, label %59

59:                                               ; preds = %.critedge4
  %60 = load ptr, ptr %22, align 8
  %61 = load i8, ptr %.1.lcssa, align 1
  %62 = sext i8 %61 to i64
  %63 = getelementptr inbounds i16, ptr %60, i64 %62
  %64 = load i16, ptr %63, align 2
  %65 = and i16 %64, 2048
  %.not58 = icmp eq i16 %65, 0
  br i1 %.not58, label %104, label %.preheader

.preheader:                                       ; preds = %59, %67
  %.1.pn = phi ptr [ %storemerge59, %67 ], [ %.1.lcssa, %59 ]
  %storemerge59 = getelementptr inbounds i8, ptr %.1.pn, i64 1
  store ptr %storemerge59, ptr %4, align 8
  %66 = icmp ult ptr %storemerge59, %5
  br i1 %66, label %67, label %.critedge6

67:                                               ; preds = %.preheader
  %68 = load i8, ptr %storemerge59, align 1
  %69 = sext i8 %68 to i64
  %70 = getelementptr inbounds i16, ptr %60, i64 %69
  %71 = load i16, ptr %70, align 2
  %72 = and i16 %71, 8192
  %.not60 = icmp eq i16 %72, 0
  br i1 %.not60, label %.preheader, label %.critedge6

.critedge6:                                       ; preds = %.preheader, %67
  %73 = icmp eq ptr %storemerge59, %5
  br i1 %73, label %104, label %74

74:                                               ; preds = %.critedge6
  %75 = call i64 @strtoul(ptr noundef nonnull %.1.lcssa, ptr noundef nonnull %4, i32 noundef 10) #14
  %76 = icmp eq i64 %75, -1
  br i1 %76, label %77, label %80

77:                                               ; preds = %74
  %78 = tail call ptr @__errno_location() #15
  %79 = load i32, ptr %78, align 4
  %.not61 = icmp eq i32 %79, 0
  br i1 %.not61, label %80, label %104

80:                                               ; preds = %77, %74
  %81 = and i64 %75, 255
  %82 = or disjoint i64 %81, %44
  %83 = trunc i64 %82 to i32
  %84 = load ptr, ptr %4, align 8
  %85 = icmp ult ptr %84, %5
  br i1 %85, label %.lr.ph74, label %.critedge8

.lr.ph74:                                         ; preds = %80
  %86 = ptrtoint ptr %84 to i64
  %87 = load ptr, ptr %22, align 8
  %88 = sub i64 %6, %86
  %scevgep80 = getelementptr i8, ptr %84, i64 %88
  br label %89

89:                                               ; preds = %.lr.ph74, %95
  %.273 = phi ptr [ %84, %.lr.ph74 ], [ %96, %95 ]
  %90 = load i8, ptr %.273, align 1
  %91 = sext i8 %90 to i64
  %92 = getelementptr inbounds i16, ptr %87, i64 %91
  %93 = load i16, ptr %92, align 2
  %94 = and i16 %93, 8192
  %.not62 = icmp eq i16 %94, 0
  br i1 %.not62, label %.critedge8, label %95

95:                                               ; preds = %89
  %96 = getelementptr inbounds i8, ptr %.273, i64 1
  %exitcond81.not = icmp eq ptr %96, %5
  br i1 %exitcond81.not, label %.critedge8, label %89

.critedge8:                                       ; preds = %89, %95, %80
  %.2.lcssa = phi ptr [ %84, %80 ], [ %scevgep80, %95 ], [ %.273, %89 ]
  %97 = icmp eq ptr %.2.lcssa, %5
  br i1 %97, label %104, label %98

98:                                               ; preds = %.critedge8
  %99 = load i8, ptr %.2.lcssa, align 1
  %100 = icmp eq i8 %99, 82
  br i1 %100, label %101, label %104

101:                                              ; preds = %98
  %102 = getelementptr inbounds i8, ptr %.2.lcssa, i64 1
  store ptr %102, ptr %1, align 8
  %.not63 = icmp eq ptr %2, null
  br i1 %.not63, label %104, label %103

103:                                              ; preds = %101
  store i32 %83, ptr %2, align 4
  br label %104

104:                                              ; preds = %98, %101, %103, %.critedge8, %77, %.critedge6, %59, %.critedge4, %40, %.critedge2, %21, %.critedge
  %.049 = phi i32 [ 0, %.critedge ], [ 0, %21 ], [ 0, %.critedge2 ], [ 0, %40 ], [ 0, %.critedge4 ], [ 0, %59 ], [ 0, %.critedge6 ], [ 0, %77 ], [ 0, %.critedge8 ], [ 1, %103 ], [ 1, %101 ], [ 0, %98 ]
  ret i32 %.049
}